target datalayout = "e-m:e-p270:32:32-p271:32:32-p272:64:64-i64:64-i128:128-f80:128-n8:16:32:64-S128"
target triple = "x86_64-pc-linux-gnu"

%struct.H5AC_cache_image_config_t = type { i32, i8, i8, i32 }

@H5P_init_g = external global i8, align 1
@H5_libterm_g = external global i8, align 1

; Function Attrs: nounwind uwtable
define internal i32 @H5P__facc_cache_image_config_enc(ptr noundef %0, ptr noundef %1, ptr noundef %2) #0 {
  %4 = alloca ptr, align 8
  %5 = alloca ptr, align 8
  %6 = alloca ptr, align 8
  %7 = alloca ptr, align 8
  %8 = alloca ptr, align 8
  store ptr %0, ptr %4, align 8, !tbaa !32
  store ptr %1, ptr %5, align 8, !tbaa !32
  store ptr %2, ptr %6, align 8, !tbaa !30
  call void @llvm.lifetime.start.p0(i64 8, ptr %7) #10
  %9 = load ptr, ptr %4, align 8, !tbaa !32
  store ptr %9, ptr %7, align 8, !tbaa !42
  call void @llvm.lifetime.start.p0(i64 8, ptr %8) #10
  %10 = load ptr, ptr %5, align 8, !tbaa !32
  store ptr %10, ptr %8, align 8, !tbaa !71
  %11 = load i8, ptr @H5P_init_g, align 1, !tbaa !22, !range !24, !noundef !25
  %12 = trunc i8 %11 to i1
  br i1 %12, label %17, label %13

13:                                               ; preds = %3
  %14 = load i8, ptr @H5_libterm_g, align 1, !tbaa !22, !range !24, !noundef !25
  %15 = trunc i8 %14 to i1
  %16 = xor i1 %15, true
  br label %17

17:                                               ; preds = %13, %3
  %18 = phi i1 [ true, %3 ], [ %16, %13 ]
  %19 = xor i1 %18, true
  %20 = xor i1 %19, true
  %21 = zext i1 %20 to i32
  %22 = sext i32 %21 to i64
  %23 = call i64 @llvm.expect.i64(i64 %22, i64 1)
  %24 = icmp ne i64 %23, 0
  br i1 %24, label %25, label %243

25:                                               ; preds = %17
  %26 = load ptr, ptr %8, align 8, !tbaa !71
  %27 = load ptr, ptr %26, align 8, !tbaa !26
  %28 = icmp ne ptr null, %27
  br i1 %28, label %29, label %239

29:                                               ; preds = %25
  %30 = load ptr, ptr %8, align 8, !tbaa !71
  %31 = load ptr, ptr %30, align 8, !tbaa !26
  %32 = getelementptr inbounds nuw i8, ptr %31, i32 1
  store ptr %32, ptr %30, align 8, !tbaa !26
  store i8 4, ptr %31, align 1, !tbaa !27
  br label %33

33:                                               ; preds = %29
  %34 = load ptr, ptr %7, align 8, !tbaa !42
  %35 = getelementptr inbounds nuw %struct.H5AC_cache_image_config_t, ptr %34, i32 0, i32 0
  %36 = load i32, ptr %35, align 4, !tbaa !44
  %37 = and i32 %36, 255
  %38 = trunc i32 %37 to i8
  %39 = load ptr, ptr %8, align 8, !tbaa !71
  %40 = load ptr, ptr %39, align 8, !tbaa !26
  store i8 %38, ptr %40, align 1, !tbaa !27
  %41 = load ptr, ptr %8, align 8, !tbaa !71
  %42 = load ptr, ptr %41, align 8, !tbaa !26
  %43 = getelementptr inbounds nuw i8, ptr %42, i32 1
  store ptr %43, ptr %41, align 8, !tbaa !26
  %44 = load ptr, ptr %7, align 8, !tbaa !42
  %45 = getelementptr inbounds nuw %struct.H5AC_cache_image_config_t, ptr %44, i32 0, i32 0
  %46 = load i32, ptr %45, align 4, !tbaa !44
  %47 = lshr i32 %46, 8
  %48 = and i32 %47, 255
  %49 = trunc i32 %48 to i8
  %50 = load ptr, ptr %8, align 8, !tbaa !71
  %51 = load ptr, ptr %50, align 8, !tbaa !26
  store i8 %49, ptr %51, align 1, !tbaa !27
  %52 = load ptr, ptr %8, align 8, !tbaa !71
  %53 = load ptr, ptr %52, align 8, !tbaa !26
  %54 = getelementptr inbounds nuw i8, ptr %53, i32 1
  store ptr %54, ptr %52, align 8, !tbaa !26
  %55 = load ptr, ptr %7, align 8, !tbaa !42
  %56 = getelementptr inbounds nuw %struct.H5AC_cache_image_config_t, ptr %55, i32 0, i32 0
  %57 = load i32, ptr %56, align 4, !tbaa !44
  %58 = lshr i32 %57, 16
  %59 = and i32 %58, 255
  %60 = trunc i32 %59 to i8
  %61 = load ptr, ptr %8, align 8, !tbaa !71
  %62 = load ptr, ptr %61, align 8, !tbaa !26
  store i8 %60, ptr %62, align 1, !tbaa !27
  %63 = load ptr, ptr %8, align 8, !tbaa !71
  %64 = load ptr, ptr %63, align 8, !tbaa !26
  %65 = getelementptr inbounds nuw i8, ptr %64, i32 1
  store ptr %65, ptr %63, align 8, !tbaa !26
  %66 = load ptr, ptr %7, align 8, !tbaa !42
  %67 = getelementptr inbounds nuw %struct.H5AC_cache_image_config_t, ptr %66, i32 0, i32 0
  %68 = load i32, ptr %67, align 4, !tbaa !44
  %69 = lshr i32 %68, 24
  %70 = and i32 %69, 255
  %71 = trunc i32 %70 to i8
  %72 = load ptr, ptr %8, align 8, !tbaa !71
  %73 = load ptr, ptr %72, align 8, !tbaa !26
  store i8 %71, ptr %73, align 1, !tbaa !27
  %74 = load ptr, ptr %8, align 8, !tbaa !71
  %75 = load ptr, ptr %74, align 8, !tbaa !26
  %76 = getelementptr inbounds nuw i8, ptr %75, i32 1
  store ptr %76, ptr %74, align 8, !tbaa !26
  br label %77

77:                                               ; preds = %33
  br label %78

78:                                               ; preds = %77
  br label %79

79:                                               ; preds = %78
  br label %80

80:                                               ; preds = %79
  %81 = load ptr, ptr %7, align 8, !tbaa !42
  %82 = getelementptr inbounds nuw %struct.H5AC_cache_image_config_t, ptr %81, i32 0, i32 1
  %83 = load i8, ptr %82, align 4, !tbaa !139, !range !24, !noundef !25
  %84 = trunc i8 %83 to i1
  %85 = zext i1 %84 to i32
  %86 = and i32 %85, 255
  %87 = trunc i32 %86 to i8
  %88 = load ptr, ptr %8, align 8, !tbaa !71
  %89 = load ptr, ptr %88, align 8, !tbaa !26
  store i8 %87, ptr %89, align 1, !tbaa !27
  %90 = load ptr, ptr %8, align 8, !tbaa !71
  %91 = load ptr, ptr %90, align 8, !tbaa !26
  %92 = getelementptr inbounds nuw i8, ptr %91, i32 1
  store ptr %92, ptr %90, align 8, !tbaa !26
  %93 = load ptr, ptr %7, align 8, !tbaa !42
  %94 = getelementptr inbounds nuw %struct.H5AC_cache_image_config_t, ptr %93, i32 0, i32 1
  %95 = load i8, ptr %94, align 4, !tbaa !139, !range !24, !noundef !25
  %96 = trunc i8 %95 to i1
  %97 = zext i1 %96 to i32
  %98 = ashr i32 %97, 8
  %99 = and i32 %98, 255
  %100 = trunc i32 %99 to i8
  %101 = load ptr, ptr %8, align 8, !tbaa !71
  %102 = load ptr, ptr %101, align 8, !tbaa !26
  store i8 %100, ptr %102, align 1, !tbaa !27
  %103 = load ptr, ptr %8, align 8, !tbaa !71
  %104 = load ptr, ptr %103, align 8, !tbaa !26
  %105 = getelementptr inbounds nuw i8, ptr %104, i32 1
  store ptr %105, ptr %103, align 8, !tbaa !26
  %106 = load ptr, ptr %7, align 8, !tbaa !42
  %107 = getelementptr inbounds nuw %struct.H5AC_cache_image_config_t, ptr %106, i32 0, i32 1
  %108 = load i8, ptr %107, align 4, !tbaa !139, !range !24, !noundef !25
  %109 = trunc i8 %108 to i1
  %110 = zext i1 %109 to i32
  %111 = ashr i32 %110, 16
  %112 = and i32 %111, 255
  %113 = trunc i32 %112 to i8
  %114 = load ptr, ptr %8, align 8, !tbaa !71
  %115 = load ptr, ptr %114, align 8, !tbaa !26
  store i8 %113, ptr %115, align 1, !tbaa !27
  %116 = load ptr, ptr %8, align 8, !tbaa !71
  %117 = load ptr, ptr %116, align 8, !tbaa !26
  %118 = getelementptr inbounds nuw i8, ptr %117, i32 1
  store ptr %118, ptr %116, align 8, !tbaa !26
  %119 = load ptr, ptr %7, align 8, !tbaa !42
  %120 = getelementptr inbounds nuw %struct.H5AC_cache_image_config_t, ptr %119, i32 0, i32 1
  %121 = load i8, ptr %120, align 4, !tbaa !139, !range !24, !noundef !25
  %122 = trunc i8 %121 to i1
  %123 = zext i1 %122 to i32
  %124 = ashr i32 %123, 24
  %125 = and i32 %124, 255
  %126 = trunc i32 %125 to i8
  %127 = load ptr, ptr %8, align 8, !tbaa !71
  %128 = load ptr, ptr %127, align 8, !tbaa !26
  store i8 %126, ptr %128, align 1, !tbaa !27
  %129 = load ptr, ptr %8, align 8, !tbaa !71
  %130 = load ptr, ptr %129, align 8, !tbaa !26
  %131 = getelementptr inbounds nuw i8, ptr %130, i32 1
  store ptr %131, ptr %129, align 8, !tbaa !26
  br label %132

132:                                              ; preds = %80
  br label %133

133:                                              ; preds = %132
  br label %134

134:                                              ; preds = %133
  br label %135

135:                                              ; preds = %134
  br label %136

136:                                              ; preds = %135
  br label %137

137:                                              ; preds = %136
  %138 = load ptr, ptr %7, align 8, !tbaa !42
  %139 = getelementptr inbounds nuw %struct.H5AC_cache_image_config_t, ptr %138, i32 0, i32 2
  %140 = load i8, ptr %139, align 1, !tbaa !140, !range !24, !noundef !25
  %141 = trunc i8 %140 to i1
  %142 = zext i1 %141 to i32
  %143 = and i32 %142, 255
  %144 = trunc i32 %143 to i8
  %145 = load ptr, ptr %8, align 8, !tbaa !71
  %146 = load ptr, ptr %145, align 8, !tbaa !26
  store i8 %144, ptr %146, align 1, !tbaa !27
  %147 = load ptr, ptr %8, align 8, !tbaa !71
  %148 = load ptr, ptr %147, align 8, !tbaa !26
  %149 = getelementptr inbounds nuw i8, ptr %148, i32 1
  store ptr %149, ptr %147, align 8, !tbaa !26
  %150 = load ptr, ptr %7, align 8, !tbaa !42
  %151 = getelementptr inbounds nuw %struct.H5AC_cache_image_config_t, ptr %150, i32 0, i32 2
  %152 = load i8, ptr %151, align 1, !tbaa !140, !range !24, !noundef !25
  %153 = trunc i8 %152 to i1
  %154 = zext i1 %153 to i32
  %155 = ashr i32 %154, 8
  %156 = and i32 %155, 255
  %157 = trunc i32 %156 to i8
  %158 = load ptr, ptr %8, align 8, !tbaa !71
  %159 = load ptr, ptr %158, align 8, !tbaa !26
  store i8 %157, ptr %159, align 1, !tbaa !27
  %160 = load ptr, ptr %8, align 8, !tbaa !71
  %161 = load ptr, ptr %160, align 8, !tbaa !26
  %162 = getelementptr inbounds nuw i8, ptr %161, i32 1
  store ptr %162, ptr %160, align 8, !tbaa !26
  %163 = load ptr, ptr %7, align 8, !tbaa !42
  %164 = getelementptr inbounds nuw %struct.H5AC_cache_image_config_t, ptr %163, i32 0, i32 2
  %165 = load i8, ptr %164, align 1, !tbaa !140, !range !24, !noundef !25
  %166 = trunc i8 %165 to i1
  %167 = zext i1 %166 to i32
  %168 = ashr i32 %167, 16
  %169 = and i32 %168, 255
  %170 = trunc i32 %169 to i8
  %171 = load ptr, ptr %8, align 8, !tbaa !71
  %172 = load ptr, ptr %171, align 8, !tbaa !26
  store i8 %170, ptr %172, align 1, !tbaa !27
  %173 = load ptr, ptr %8, align 8, !tbaa !71
  %174 = load ptr, ptr %173, align 8, !tbaa !26
  %175 = getelementptr inbounds nuw i8, ptr %174, i32 1
  store ptr %175, ptr %173, align 8, !tbaa !26
  %176 = load ptr, ptr %7, align 8, !tbaa !42
  %177 = getelementptr inbounds nuw %struct.H5AC_cache_image_config_t, ptr %176, i32 0, i32 2
  %178 = load i8, ptr %177, align 1, !tbaa !140, !range !24, !noundef !25
  %179 = trunc i8 %178 to i1
  %180 = zext i1 %179 to i32
  %181 = ashr i32 %180, 24
  %182 = and i32 %181, 255
  %183 = trunc i32 %182 to i8
  %184 = load ptr, ptr %8, align 8, !tbaa !71
  %185 = load ptr, ptr %184, align 8, !tbaa !26
  store i8 %183, ptr %185, align 1, !tbaa !27
  %186 = load ptr, ptr %8, align 8, !tbaa !71
  %187 = load ptr, ptr %186, align 8, !tbaa !26
  %188 = getelementptr inbounds nuw i8, ptr %187, i32 1
  store ptr %188, ptr %186, align 8, !tbaa !26
  br label %189

189:                                              ; preds = %137
  br label %190

190:                                              ; preds = %189
  br label %191

191:                                              ; preds = %190
  br label %192

192:                                              ; preds = %191
  br label %193

193:                                              ; preds = %192
  %194 = load ptr, ptr %7, align 8, !tbaa !42
  %195 = getelementptr inbounds nuw %struct.H5AC_cache_image_config_t, ptr %194, i32 0, i32 3
  %196 = load i32, ptr %195, align 4, !tbaa !141
  %197 = and i32 %196, 255
  %198 = trunc i32 %197 to i8
  %199 = load ptr, ptr %8, align 8, !tbaa !71
  %200 = load ptr, ptr %199, align 8, !tbaa !26
  store i8 %198, ptr %200, align 1, !tbaa !27
  %201 = load ptr, ptr %8, align 8, !tbaa !71
  %202 = load ptr, ptr %201, align 8, !tbaa !26
  %203 = getelementptr inbounds nuw i8, ptr %202, i32 1
  store ptr %203, ptr %201, align 8, !tbaa !26
  %204 = load ptr, ptr %7, align 8, !tbaa !42
  %205 = getelementptr inbounds nuw %struct.H5AC_cache_image_config_t, ptr %204, i32 0, i32 3
  %206 = load i32, ptr %205, align 4, !tbaa !141
  %207 = lshr i32 %206, 8
  %208 = and i32 %207, 255
  %209 = trunc i32 %208 to i8
  %210 = load ptr, ptr %8, align 8, !tbaa !71
  %211 = load ptr, ptr %210, align 8, !tbaa !26
  store i8 %209, ptr %211, align 1, !tbaa !27
  %212 = load ptr, ptr %8, align 8, !tbaa !71
  %213 = load ptr, ptr %212, align 8, !tbaa !26
  %214 = getelementptr inbounds nuw i8, ptr %213, i32 1
  store ptr %214, ptr %212, align 8, !tbaa !26
  %215 = load ptr, ptr %7, align 8, !tbaa !42
  %216 = getelementptr inbounds nuw %struct.H5AC_cache_image_config_t, ptr %215, i32 0, i32 3
  %217 = load i32, ptr %216, align 4, !tbaa !141
  %218 = lshr i32 %217, 16
  %219 = and i32 %218, 255
  %220 = trunc i32 %219 to i8
  %221 = load ptr, ptr %8, align 8, !tbaa !71
  %222 = load ptr, ptr %221, align 8, !tbaa !26
  store i8 %220, ptr %222, align 1, !tbaa !27
  %223 = load ptr, ptr %8, align 8, !tbaa !71
  %224 = load ptr, ptr %223, align 8, !tbaa !26
  %225 = getelementptr inbounds nuw i8, ptr %224, i32 1
  store ptr %225, ptr %223, align 8, !tbaa !26
  %226 = load ptr, ptr %7, align 8, !tbaa !42
  %227 = getelementptr inbounds nuw %struct.H5AC_cache_image_config_t, ptr %226, i32 0, i32 3
  %228 = load i32, ptr %227, align 4, !tbaa !141
  %229 = lshr i32 %228, 24
  %230 = and i32 %229, 255
  %231 = trunc i32 %230 to i8
  %232 = load ptr, ptr %8, align 8, !tbaa !71
  %233 = load ptr, ptr %232, align 8, !tbaa !26
  store i8 %231, ptr %233, align 1, !tbaa !27
  %234 = load ptr, ptr %8, align 8, !tbaa !71
  %235 = load ptr, ptr %234, align 8, !tbaa !26
  %236 = getelementptr inbounds nuw i8, ptr %235, i32 1
  store ptr %236, ptr %234, align 8, !tbaa !26
  br label %237

237:                                              ; preds = %193
  br label %238

238:                                              ; preds = %237
  br label %239

239:                                              ; preds = %238, %25
  %240 = load ptr, ptr %6, align 8, !tbaa !30
  %241 = load i64, ptr %240, align 8, !tbaa !8
  %242 = add i64 %241, 17
  store i64 %242, ptr %240, align 8, !tbaa !8
  br label %243

243:                                              ; preds = %239, %17
  call void @llvm.lifetime.end.p0(i64 8, ptr %8) #10
  call void @llvm.lifetime.end.p0(i64 8, ptr %7) #10
  ret i32 0
}