; Function Attrs: mustprogress nofree norecurse nosync nounwind willreturn memory(readwrite, inaccessiblemem: none) uwtable
define internal noundef i32 @H5P__facc_cache_image_config_enc(ptr noundef readonly captures(none) %0, ptr noundef captures(none) %1, ptr noundef captures(none) %2) #11 {
  %4 = load i8, ptr @H5P_init_g, align 1, !tbaa !16, !range !18, !noundef !19
  %5 = trunc nuw i8 %4 to i1
  %6 = load i8, ptr @H5_libterm_g, align 1, !range !18
  %7 = trunc nuw i8 %6 to i1
  %8 = xor i1 %7, true
  %9 = select i1 %5, i1 true, i1 %8
  br i1 %9, label %10, label %77, !prof !20

10:                                               ; preds = %3
  %11 = load ptr, ptr %1, align 8, !tbaa !59
  %.not = icmp eq ptr %11, null
  br i1 %.not, label %74, label %12

12:                                               ; preds = %10
  %13 = getelementptr inbounds nuw i8, ptr %11, i64 1
  store ptr %13, ptr %1, align 8, !tbaa !59
  store i8 4, ptr %11, align 1, !tbaa !21
  %14 = load i32, ptr %0, align 4, !tbaa !35
  %15 = trunc i32 %14 to i8
  %16 = load ptr, ptr %1, align 8, !tbaa !59
  store i8 %15, ptr %16, align 1, !tbaa !21
  %17 = load ptr, ptr %1, align 8, !tbaa !59
  %18 = getelementptr inbounds nuw i8, ptr %17, i64 1
  store ptr %18, ptr %1, align 8, !tbaa !59
  %19 = load i32, ptr %0, align 4, !tbaa !35
  %20 = lshr i32 %19, 8
  %21 = trunc i32 %20 to i8
  store i8 %21, ptr %18, align 1, !tbaa !21
  %22 = load ptr, ptr %1, align 8, !tbaa !59
  %23 = getelementptr inbounds nuw i8, ptr %22, i64 1
  store ptr %23, ptr %1, align 8, !tbaa !59
  %24 = load i32, ptr %0, align 4, !tbaa !35
  %25 = lshr i32 %24, 16
  %26 = trunc i32 %25 to i8
  store i8 %26, ptr %23, align 1, !tbaa !21
  %27 = load ptr, ptr %1, align 8, !tbaa !59
  %28 = getelementptr inbounds nuw i8, ptr %27, i64 1
  store ptr %28, ptr %1, align 8, !tbaa !59
  %29 = load i32, ptr %0, align 4, !tbaa !35
  %30 = lshr i32 %29, 24
  %31 = trunc nuw i32 %30 to i8
  store i8 %31, ptr %28, align 1, !tbaa !21
  %32 = load ptr, ptr %1, align 8, !tbaa !59
  %33 = getelementptr inbounds nuw i8, ptr %32, i64 1
  store ptr %33, ptr %1, align 8, !tbaa !59
  %34 = getelementptr inbounds nuw i8, ptr %0, i64 4
  %35 = load i8, ptr %34, align 4, !tbaa !123, !range !18, !noundef !19
  store i8 %35, ptr %33, align 1, !tbaa !21
  %36 = load ptr, ptr %1, align 8, !tbaa !59
  %37 = getelementptr inbounds nuw i8, ptr %36, i64 1
  store ptr %37, ptr %1, align 8, !tbaa !59
  store i8 0, ptr %37, align 1, !tbaa !21
  %38 = load ptr, ptr %1, align 8, !tbaa !59
  %39 = getelementptr inbounds nuw i8, ptr %38, i64 1
  store ptr %39, ptr %1, align 8, !tbaa !59
  store i8 0, ptr %39, align 1, !tbaa !21
  %40 = load ptr, ptr %1, align 8, !tbaa !59
  %41 = getelementptr inbounds nuw i8, ptr %40, i64 1
  store ptr %41, ptr %1, align 8, !tbaa !59
  store i8 0, ptr %41, align 1, !tbaa !21
  %42 = load ptr, ptr %1, align 8, !tbaa !59
  %43 = getelementptr inbounds nuw i8, ptr %42, i64 1
  store ptr %43, ptr %1, align 8, !tbaa !59
  %44 = getelementptr inbounds nuw i8, ptr %0, i64 5
  %45 = load i8, ptr %44, align 1, !tbaa !124, !range !18, !noundef !19
  store i8 %45, ptr %43, align 1, !tbaa !21
  %46 = load ptr, ptr %1, align 8, !tbaa !59
  %47 = getelementptr inbounds nuw i8, ptr %46, i64 1
  store ptr %47, ptr %1, align 8, !tbaa !59
  store i8 0, ptr %47, align 1, !tbaa !21
  %48 = load ptr, ptr %1, align 8, !tbaa !59
  %49 = getelementptr inbounds nuw i8, ptr %48, i64 1
  store ptr %49, ptr %1, align 8, !tbaa !59
  store i8 0, ptr %49, align 1, !tbaa !21
  %50 = load ptr, ptr %1, align 8, !tbaa !59
  %51 = getelementptr inbounds nuw i8, ptr %50, i64 1
  store ptr %51, ptr %1, align 8, !tbaa !59
  store i8 0, ptr %51, align 1, !tbaa !21
  %52 = load ptr, ptr %1, align 8, !tbaa !59
  %53 = getelementptr inbounds nuw i8, ptr %52, i64 1
  store ptr %53, ptr %1, align 8, !tbaa !59
  %54 = getelementptr inbounds nuw i8, ptr %0, i64 8
  %55 = load i32, ptr %54, align 4, !tbaa !125
  %56 = trunc i32 %55 to i8
  store i8 %56, ptr %53, align 1, !tbaa !21
  %57 = load ptr, ptr %1, align 8, !tbaa !59
  %58 = getelementptr inbounds nuw i8, ptr %57, i64 1
  store ptr %58, ptr %1, align 8, !tbaa !59
  %59 = load i32, ptr %54, align 4, !tbaa !125
  %60 = lshr i32 %59, 8
  %61 = trunc i32 %60 to i8
  store i8 %61, ptr %58, align 1, !tbaa !21
  %62 = load ptr, ptr %1, align 8, !tbaa !59
  %63 = getelementptr inbounds nuw i8, ptr %62, i64 1
  store ptr %63, ptr %1, align 8, !tbaa !59
  %64 = load i32, ptr %54, align 4, !tbaa !125
  %65 = lshr i32 %64, 16
  %66 = trunc i32 %65 to i8
  store i8 %66, ptr %63, align 1, !tbaa !21
  %67 = load ptr, ptr %1, align 8, !tbaa !59
  %68 = getelementptr inbounds nuw i8, ptr %67, i64 1
  store ptr %68, ptr %1, align 8, !tbaa !59
  %69 = load i32, ptr %54, align 4, !tbaa !125
  %70 = lshr i32 %69, 24
  %71 = trunc nuw i32 %70 to i8
  store i8 %71, ptr %68, align 1, !tbaa !21
  %72 = load ptr, ptr %1, align 8, !tbaa !59
  %73 = getelementptr inbounds nuw i8, ptr %72, i64 1
  store ptr %73, ptr %1, align 8, !tbaa !59
  br label %74

74:                                               ; preds = %12, %10
  %75 = load i64, ptr %2, align 8, !tbaa !3
  %76 = add i64 %75, 17
  store i64 %76, ptr %2, align 8, !tbaa !3
  br label %77

77:                                               ; preds = %74, %3
  ret i32 0
}